target datalayout = "e-m:e-p270:32:32-p271:32:32-p272:64:64-i64:64-i128:128-f80:128-n8:16:32:64-S128"
target triple = "x86_64-pc-linux-gnu"

@.str.6 = private unnamed_addr constant [1 x i8] zeroinitializer, align 1

; Function Attrs: nounwind uwtable
define ptr @php_strip_url_passwd(ptr noundef %0) #0 {
  %2 = alloca ptr, align 8
  %3 = alloca ptr, align 8
  %4 = alloca ptr, align 8
  %5 = alloca ptr, align 8
  %6 = alloca i32, align 4
  store ptr %0, ptr %3, align 8
  %7 = load ptr, ptr %3, align 8
  %8 = icmp eq ptr %7, null
  br i1 %8, label %9, label %10

9:                                                ; preds = %1
  store ptr @.str.6, ptr %2, align 8
  br label %87

10:                                               ; preds = %1
  %11 = load ptr, ptr %3, align 8
  store ptr %11, ptr %4, align 8
  br label %12

12:                                               ; preds = %82, %10
  %13 = load ptr, ptr %4, align 8
  %14 = load i8, ptr %13, align 1
  %15 = icmp ne i8 %14, 0
  br i1 %15, label %16, label %85

16:                                               ; preds = %12
  %17 = load ptr, ptr %4, align 8
  %18 = load i8, ptr %17, align 1
  %19 = sext i8 %18 to i32
  %20 = icmp eq i32 %19, 58
  br i1 %20, label %21, label %82

21:                                               ; preds = %16
  %22 = load ptr, ptr %4, align 8
  %23 = getelementptr inbounds i8, ptr %22, i64 1
  %24 = load i8, ptr %23, align 1
  %25 = sext i8 %24 to i32
  %26 = icmp eq i32 %25, 47
  br i1 %26, label %27, label %82

27:                                               ; preds = %21
  %28 = load ptr, ptr %4, align 8
  %29 = getelementptr inbounds i8, ptr %28, i64 2
  %30 = load i8, ptr %29, align 1
  %31 = sext i8 %30 to i32
  %32 = icmp eq i32 %31, 47
  br i1 %32, label %33, label %82

33:                                               ; preds = %27
  %34 = load ptr, ptr %4, align 8
  %35 = getelementptr inbounds i8, ptr %34, i64 3
  store ptr %35, ptr %4, align 8
  store ptr %35, ptr %5, align 8
  br label %36

36:                                               ; preds = %77, %33
  %37 = load ptr, ptr %4, align 8
  %38 = load i8, ptr %37, align 1
  %39 = icmp ne i8 %38, 0
  br i1 %39, label %40, label %80

40:                                               ; preds = %36
  %41 = load ptr, ptr %4, align 8
  %42 = load i8, ptr %41, align 1
  %43 = sext i8 %42 to i32
  %44 = icmp eq i32 %43, 64
  br i1 %44, label %45, label %77

45:                                               ; preds = %40
  store i32 0, ptr %6, align 4
  br label %46

46:                                               ; preds = %57, %45
  %47 = load i32, ptr %6, align 4
  %48 = icmp slt i32 %47, 3
  br i1 %48, label %49, label %53

49:                                               ; preds = %46
  %50 = load ptr, ptr %5, align 8
  %51 = load ptr, ptr %4, align 8
  %52 = icmp ult ptr %50, %51
  br label %53

53:                                               ; preds = %49, %46
  %54 = phi i1 [ false, %46 ], [ %52, %49 ]
  br i1 %54, label %55, label %62

55:                                               ; preds = %53
  %56 = load ptr, ptr %5, align 8
  store i8 46, ptr %56, align 1
  br label %57

57:                                               ; preds = %55
  %58 = load i32, ptr %6, align 4
  %59 = add nsw i32 %58, 1
  store i32 %59, ptr %6, align 4
  %60 = load ptr, ptr %5, align 8
  %61 = getelementptr inbounds i8, ptr %60, i32 1
  store ptr %61, ptr %5, align 8
  br label %46

62:                                               ; preds = %53
  br label %63

63:                                               ; preds = %72, %62
  %64 = load ptr, ptr %4, align 8
  %65 = load i8, ptr %64, align 1
  %66 = icmp ne i8 %65, 0
  br i1 %66, label %67, label %75

67:                                               ; preds = %63
  %68 = load ptr, ptr %4, align 8
  %69 = load i8, ptr %68, align 1
  %70 = load ptr, ptr %5, align 8
  %71 = getelementptr inbounds i8, ptr %70, i32 1
  store ptr %71, ptr %5, align 8
  store i8 %69, ptr %70, align 1
  br label %72

72:                                               ; preds = %67
  %73 = load ptr, ptr %4, align 8
  %74 = getelementptr inbounds i8, ptr %73, i32 1
  store ptr %74, ptr %4, align 8
  br label %63

75:                                               ; preds = %63
  %76 = load ptr, ptr %5, align 8
  store i8 0, ptr %76, align 1
  br label %80

77:                                               ; preds = %40
  %78 = load ptr, ptr %4, align 8
  %79 = getelementptr inbounds i8, ptr %78, i32 1
  store ptr %79, ptr %4, align 8
  br label %36

80:                                               ; preds = %75, %36
  %81 = load ptr, ptr %3, align 8
  store ptr %81, ptr %2, align 8
  br label %87

82:                                               ; preds = %27, %21, %16
  %83 = load ptr, ptr %4, align 8
  %84 = getelementptr inbounds i8, ptr %83, i32 1
  store ptr %84, ptr %4, align 8
  br label %12

85:                                               ; preds = %12
  %86 = load ptr, ptr %3, align 8
  store ptr %86, ptr %2, align 8
  br label %87

87:                                               ; preds = %85, %80, %9
  %88 = load ptr, ptr %2, align 8
  ret ptr %88
}