; Function Attrs: nofree norecurse nosync nounwind memory(readwrite, inaccessiblemem: none) uwtable
define noundef ptr @php_strip_url_passwd(ptr noundef %0) local_unnamed_addr #10 {
  %2 = icmp eq ptr %0, null
  br i1 %2, label %.loopexit, label %.preheader35.preheader

.preheader35.preheader:                           ; preds = %1
  %3 = ptrtoint ptr %0 to i64
  %scevgep = getelementptr i8, ptr %0, i64 4
  %4 = sub i64 -4, %3
  %5 = add i64 %3, 4
  %6 = add i64 %3, 3
  br label %.preheader35

.preheader35:                                     ; preds = %.preheader35.preheader, %32
  %indvars.iv63 = phi i64 [ %6, %.preheader35.preheader ], [ %indvars.iv.next64, %32 ]
  %indvars.iv60 = phi i64 [ %5, %.preheader35.preheader ], [ %indvars.iv.next61, %32 ]
  %indvars.iv58 = phi i64 [ %4, %.preheader35.preheader ], [ %indvars.iv.next, %32 ]
  %indvars.iv = phi ptr [ %scevgep, %.preheader35.preheader ], [ %scevgep56, %32 ]
  %indvar = phi i64 [ 0, %.preheader35.preheader ], [ %indvar.next, %32 ]
  %.025 = phi ptr [ %0, %.preheader35.preheader ], [ %33, %32 ]
  %7 = load i8, ptr %.025, align 1
  switch i8 %7, label %32 [
    i8 0, label %.loopexit
    i8 58, label %8
  ]

8:                                                ; preds = %.preheader35
  %9 = getelementptr inbounds i8, ptr %.025, i64 1
  %10 = load i8, ptr %9, align 1
  %11 = icmp eq i8 %10, 47
  br i1 %11, label %12, label %32

12:                                               ; preds = %8
  %13 = getelementptr inbounds i8, ptr %.025, i64 2
  %14 = load i8, ptr %13, align 1
  %15 = icmp eq i8 %14, 47
  br i1 %15, label %16, label %32

16:                                               ; preds = %12
  %.ptr46 = getelementptr i8, ptr %.025, i64 3
  br label %17

17:                                               ; preds = %31, %16
  %indvars.iv66 = phi i64 [ %indvars.iv.next67, %31 ], [ %indvars.iv63, %16 ]
  %indvar53 = phi i64 [ %indvar.next54, %31 ], [ 0, %16 ]
  %.126.idx = phi i64 [ %.126.add, %31 ], [ 3, %16 ]
  %.126.ptr = getelementptr inbounds i8, ptr %.025, i64 %.126.idx
  %18 = load i8, ptr %.126.ptr, align 1
  switch i8 %18, label %31 [
    i8 0, label %.loopexit
    i8 64, label %.preheader34
  ]

.preheader34:                                     ; preds = %17
  %.126.ptr.le = getelementptr inbounds i8, ptr %.025, i64 %.126.idx
  %19 = icmp ugt i64 %.126.idx, 3
  br i1 %19, label %.preheader, label %.lr.ph44.preheader

.preheader:                                       ; preds = %.preheader34
  %20 = sub i64 %4, %indvar
  %21 = add i64 %indvar, %5
  %22 = add i64 %indvar, %6
  %23 = add i64 %indvar53, %22
  %umax = tail call i64 @llvm.umax.i64(i64 %21, i64 %23)
  %24 = add i64 %20, %umax
  %umin = tail call i64 @llvm.umin.i64(i64 %24, i64 2)
  %25 = add nuw nsw i64 %umin, 1
  tail call void @llvm.memset.p0.i64(ptr noundef nonnull align 1 dereferenceable(1) %.ptr46, i8 46, i64 %25, i1 false)
  %umax69 = tail call i64 @llvm.umax.i64(i64 %indvars.iv60, i64 %indvars.iv66)
  %26 = add i64 %indvars.iv58, %umax69
  %umin70 = tail call i64 @llvm.umin.i64(i64 %26, i64 2)
  %scevgep71 = getelementptr i8, ptr %indvars.iv, i64 %umin70
  %.pre = load i8, ptr %.126.ptr.le, align 1
  %.not3341 = icmp eq i8 %.pre, 0
  br i1 %.not3341, label %._crit_edge, label %.lr.ph44.preheader

.lr.ph44.preheader:                               ; preds = %.preheader34, %.preheader
  %.ph = phi i8 [ 64, %.preheader34 ], [ %.pre, %.preheader ]
  %.143.ph = phi ptr [ %.ptr46, %.preheader34 ], [ %scevgep71, %.preheader ]
  br label %.lr.ph44

.lr.ph44:                                         ; preds = %.lr.ph44.preheader, %.lr.ph44
  %27 = phi i8 [ %30, %.lr.ph44 ], [ %.ph, %.lr.ph44.preheader ]
  %.143 = phi ptr [ %28, %.lr.ph44 ], [ %.143.ph, %.lr.ph44.preheader ]
  %.242 = phi ptr [ %29, %.lr.ph44 ], [ %.126.ptr.le, %.lr.ph44.preheader ]
  %28 = getelementptr inbounds i8, ptr %.143, i64 1
  store i8 %27, ptr %.143, align 1
  %29 = getelementptr inbounds i8, ptr %.242, i64 1
  %30 = load i8, ptr %29, align 1
  %.not33 = icmp eq i8 %30, 0
  br i1 %.not33, label %._crit_edge, label %.lr.ph44

._crit_edge:                                      ; preds = %.lr.ph44, %.preheader
  %.1.lcssa = phi ptr [ %scevgep71, %.preheader ], [ %28, %.lr.ph44 ]
  store i8 0, ptr %.1.lcssa, align 1
  br label %.loopexit

31:                                               ; preds = %17
  %.126.add = add nuw nsw i64 %.126.idx, 1
  %indvar.next54 = add i64 %indvar53, 1
  %indvars.iv.next67 = add i64 %indvars.iv66, 1
  br label %17

32:                                               ; preds = %.preheader35, %12, %8
  %33 = getelementptr inbounds i8, ptr %.025, i64 1
  %indvar.next = add i64 %indvar, 1
  %scevgep56 = getelementptr i8, ptr %indvars.iv, i64 1
  %indvars.iv.next = add i64 %indvars.iv58, -1
  %indvars.iv.next61 = add i64 %indvars.iv60, 1
  %indvars.iv.next64 = add i64 %indvars.iv63, 1
  br label %.preheader35

.loopexit:                                        ; preds = %.preheader35, %17, %._crit_edge, %1
  %.027 = phi ptr [ @.str.6, %1 ], [ %0, %._crit_edge ], [ %0, %17 ], [ %0, %.preheader35 ]
  ret ptr %.027
}